target datalayout = "e-m:e-p270:32:32-p271:32:32-p272:64:64-i64:64-i128:128-f80:128-n8:16:32:64-S128"
target triple = "x86_64-pc-linux-gnu"

%"struct.std::pair" = type { i64, double }
%"struct.std::_Vector_base" = type { %"struct.std::_Vector_base<std::pair<long, double>, std::allocator<std::pair<long, double>>>::_Vector_impl" }
%"struct.std::_Vector_base<std::pair<long, double>, std::allocator<std::pair<long, double>>>::_Vector_impl" = type { %"struct.std::_Vector_base<std::pair<long, double>, std::allocator<std::pair<long, double>>>::_Vector_impl_data" }
%"struct.std::_Vector_base<std::pair<long, double>, std::allocator<std::pair<long, double>>>::_Vector_impl_data" = type { ptr, ptr, ptr }

; Function Attrs: mustprogress nounwind uwtable
define linkonce_odr noundef zeroext i1 @_ZN10open_spiel4NearIdEEbT_S1_S1_(double noundef %0, double noundef %1, double noundef %2) #5 comdat {
  %4 = alloca double, align 8
  %5 = alloca double, align 8
  %6 = alloca double, align 8
  store double %0, ptr %4, align 8
  store double %1, ptr %5, align 8
  store double %2, ptr %6, align 8
  %7 = load double, ptr %4, align 8
  %8 = load double, ptr %5, align 8
  %9 = fsub double %7, %8
  %10 = call double @llvm.fabs.f64(double %9)
  %11 = load double, ptr %6, align 8
  %12 = fcmp ole double %10, %11
  ret i1 %12
}

; Function Attrs: mustprogress nounwind uwtable
define linkonce_odr noundef nonnull align 8 dereferenceable(16) ptr @_ZNKSt6vectorISt4pairIldESaIS1_EEixEm(ptr noundef nonnull align 8 dereferenceable(24) %0, i64 noundef %1) #5 comdat align 2 {
  %3 = alloca ptr, align 8
  %4 = alloca i64, align 8
  store ptr %0, ptr %3, align 8
  store i64 %1, ptr %4, align 8
  %5 = load ptr, ptr %3, align 8
  %6 = getelementptr inbounds nuw %"struct.std::_Vector_base", ptr %5, i32 0, i32 0
  %7 = getelementptr inbounds nuw %"struct.std::_Vector_base<std::pair<long, double>, std::allocator<std::pair<long, double>>>::_Vector_impl_data", ptr %6, i32 0, i32 0
  %8 = load ptr, ptr %7, align 8
  %9 = load i64, ptr %4, align 8
  %10 = getelementptr inbounds %"struct.std::pair", ptr %8, i64 %9
  ret ptr %10
}

; Function Attrs: mustprogress nounwind uwtable
define linkonce_odr noundef i64 @_ZNKSt6vectorISt4pairIldESaIS1_EE4sizeEv(ptr noundef nonnull align 8 dereferenceable(24) %0) #5 comdat align 2 {
  %2 = alloca ptr, align 8
  store ptr %0, ptr %2, align 8
  %3 = load ptr, ptr %2, align 8
  %4 = getelementptr inbounds nuw %"struct.std::_Vector_base", ptr %3, i32 0, i32 0
  %5 = getelementptr inbounds nuw %"struct.std::_Vector_base<std::pair<long, double>, std::allocator<std::pair<long, double>>>::_Vector_impl_data", ptr %4, i32 0, i32 1
  %6 = load ptr, ptr %5, align 8
  %7 = getelementptr inbounds nuw %"struct.std::_Vector_base", ptr %3, i32 0, i32 0
  %8 = getelementptr inbounds nuw %"struct.std::_Vector_base<std::pair<long, double>, std::allocator<std::pair<long, double>>>::_Vector_impl_data", ptr %7, i32 0, i32 0
  %9 = load ptr, ptr %8, align 8
  %10 = ptrtoint ptr %6 to i64
  %11 = ptrtoint ptr %9 to i64
  %12 = sub i64 %10, %11
  %13 = sdiv exact i64 %12, 16
  ret i64 %13
}

; Function Attrs: mustprogress uwtable
define noundef zeroext i1 @_ZN10open_spiel18StatePoliciesEqualERKSt6vectorISt4pairIldESaIS2_EES6_d(ptr noundef nonnull align 8 dereferenceable(24) %0, ptr noundef nonnull align 8 dereferenceable(24) %1, double noundef %2) #4 {
  %4 = alloca i1, align 1
  %5 = alloca ptr, align 8
  %6 = alloca ptr, align 8
  %7 = alloca double, align 8
  %8 = alloca i32, align 4
  store ptr %0, ptr %5, align 8
  store ptr %1, ptr %6, align 8
  store double %2, ptr %7, align 8
  %9 = load ptr, ptr %5, align 8
  %10 = call noundef i64 @_ZNKSt6vectorISt4pairIldESaIS1_EE4sizeEv(ptr noundef nonnull align 8 dereferenceable(24) %9) #3
  %11 = load ptr, ptr %6, align 8
  %12 = call noundef i64 @_ZNKSt6vectorISt4pairIldESaIS1_EE4sizeEv(ptr noundef nonnull align 8 dereferenceable(24) %11) #3
  %13 = icmp ne i64 %10, %12
  br i1 %13, label %14, label %15

14:                                               ; preds = %3
  store i1 false, ptr %4, align 1
  br label %58

15:                                               ; preds = %3
  store i32 0, ptr %8, align 4
  br label %16

16:                                               ; preds = %54, %15
  %17 = load i32, ptr %8, align 4
  %18 = sext i32 %17 to i64
  %19 = load ptr, ptr %5, align 8
  %20 = call noundef i64 @_ZNKSt6vectorISt4pairIldESaIS1_EE4sizeEv(ptr noundef nonnull align 8 dereferenceable(24) %19) #3
  %21 = icmp ult i64 %18, %20
  br i1 %21, label %22, label %57

22:                                               ; preds = %16
  %23 = load ptr, ptr %5, align 8
  %24 = load i32, ptr %8, align 4
  %25 = sext i32 %24 to i64
  %26 = call noundef nonnull align 8 dereferenceable(16) ptr @_ZNKSt6vectorISt4pairIldESaIS1_EEixEm(ptr noundef nonnull align 8 dereferenceable(24) %23, i64 noundef %25) #3
  %27 = getelementptr inbounds nuw %"struct.std::pair", ptr %26, i32 0, i32 0
  %28 = load i64, ptr %27, align 8
  %29 = load ptr, ptr %6, align 8
  %30 = load i32, ptr %8, align 4
  %31 = sext i32 %30 to i64
  %32 = call noundef nonnull align 8 dereferenceable(16) ptr @_ZNKSt6vectorISt4pairIldESaIS1_EEixEm(ptr noundef nonnull align 8 dereferenceable(24) %29, i64 noundef %31) #3
  %33 = getelementptr inbounds nuw %"struct.std::pair", ptr %32, i32 0, i32 0
  %34 = load i64, ptr %33, align 8
  %35 = icmp ne i64 %28, %34
  br i1 %35, label %36, label %37

36:                                               ; preds = %22
  store i1 false, ptr %4, align 1
  br label %58

37:                                               ; preds = %22
  %38 = load ptr, ptr %5, align 8
  %39 = load i32, ptr %8, align 4
  %40 = sext i32 %39 to i64
  %41 = call noundef nonnull align 8 dereferenceable(16) ptr @_ZNKSt6vectorISt4pairIldESaIS1_EEixEm(ptr noundef nonnull align 8 dereferenceable(24) %38, i64 noundef %40) #3
  %42 = getelementptr inbounds nuw %"struct.std::pair", ptr %41, i32 0, i32 1
  %43 = load double, ptr %42, align 8
  %44 = load ptr, ptr %6, align 8
  %45 = load i32, ptr %8, align 4
  %46 = sext i32 %45 to i64
  %47 = call noundef nonnull align 8 dereferenceable(16) ptr @_ZNKSt6vectorISt4pairIldESaIS1_EEixEm(ptr noundef nonnull align 8 dereferenceable(24) %44, i64 noundef %46) #3
  %48 = getelementptr inbounds nuw %"struct.std::pair", ptr %47, i32 0, i32 1
  %49 = load double, ptr %48, align 8
  %50 = load double, ptr %7, align 8
  %51 = call noundef zeroext i1 @_ZN10open_spiel4NearIdEEbT_S1_S1_(double noundef %43, double noundef %49, double noundef %50)
  br i1 %51, label %53, label %52

52:                                               ; preds = %37
  store i1 false, ptr %4, align 1
  br label %58

53:                                               ; preds = %37
  br label %54

54:                                               ; preds = %53
  %55 = load i32, ptr %8, align 4
  %56 = add nsw i32 %55, 1
  store i32 %56, ptr %8, align 4
  br label %16, !llvm.loop !4

57:                                               ; preds = %16
  store i1 true, ptr %4, align 1
  br label %58

58:                                               ; preds = %57, %52, %36, %14
  %59 = load i1, ptr %4, align 1
  ret i1 %59
}