; Function Attrs: mustprogress nofree norecurse nosync nounwind willreturn memory(read, inaccessiblemem: none) uwtable
define noundef zeroext i1 @_ZN10open_spiel18StatePoliciesEqualERKSt6vectorISt4pairIldESaIS2_EES6_d(ptr nocapture noundef nonnull readonly align 8 dereferenceable(24) %0, ptr nocapture noundef nonnull readonly align 8 dereferenceable(24) %1, double noundef %2) local_unnamed_addr #4 {
  %4 = getelementptr inbounds nuw i8, ptr %0, i64 8
  %5 = load ptr, ptr %4, align 8
  %6 = load ptr, ptr %0, align 8
  %7 = ptrtoint ptr %5 to i64
  %8 = ptrtoint ptr %6 to i64
  %9 = sub i64 %7, %8
  %10 = ashr exact i64 %9, 4
  %11 = getelementptr inbounds nuw i8, ptr %1, i64 8
  %12 = load ptr, ptr %11, align 8
  %13 = load ptr, ptr %1, align 8
  %14 = ptrtoint ptr %12 to i64
  %15 = ptrtoint ptr %13 to i64
  %16 = sub i64 %14, %15
  %.not = icmp eq i64 %9, %16
  br i1 %.not, label %.preheader, label %.loopexit

.preheader:                                       ; preds = %3
  %.not22 = icmp eq ptr %5, %6
  br i1 %.not22, label %.loopexit, label %.lr.ph.preheader

.lr.ph.preheader:                                 ; preds = %.preheader
  %umax = tail call i64 @llvm.umax.i64(i64 %10, i64 1)
  br label %.lr.ph

17:                                               ; preds = %22
  %indvars.iv.next = add nuw i64 %indvars.iv, 1
  %exitcond.not = icmp eq i64 %indvars.iv.next, %umax
  br i1 %exitcond.not, label %.loopexit, label %.lr.ph, !llvm.loop !15

.lr.ph:                                           ; preds = %.lr.ph.preheader, %17
  %indvars.iv = phi i64 [ 0, %.lr.ph.preheader ], [ %indvars.iv.next, %17 ]
  %18 = getelementptr inbounds %"struct.std::pair", ptr %6, i64 %indvars.iv
  %19 = load i64, ptr %18, align 8
  %20 = getelementptr inbounds %"struct.std::pair", ptr %13, i64 %indvars.iv
  %21 = load i64, ptr %20, align 8
  %.not16 = icmp eq i64 %19, %21
  br i1 %.not16, label %22, label %.loopexit

22:                                               ; preds = %.lr.ph
  %23 = getelementptr inbounds nuw i8, ptr %18, i64 8
  %24 = load double, ptr %23, align 8
  %25 = getelementptr inbounds nuw i8, ptr %20, i64 8
  %26 = load double, ptr %25, align 8
  %27 = fsub double %24, %26
  %28 = tail call double @llvm.fabs.f64(double %27)
  %29 = fcmp ugt double %28, %2
  br i1 %29, label %.loopexit, label %17

.loopexit:                                        ; preds = %.lr.ph, %22, %17, %.preheader, %3
  %.014 = phi i1 [ false, %3 ], [ true, %.preheader ], [ false, %.lr.ph ], [ false, %22 ], [ true, %17 ]
  ret i1 %.014
}